; Function Attrs: mustprogress uwtable
define void @_ZNK6casadi11FmuInternal3getEPNS_9FmuMemoryEmPd(ptr noundef nonnull readonly align 8 captures(none) dereferenceable(744) %0, ptr noundef readonly captures(none) %1, i64 noundef %2, ptr noundef writeonly captures(none) %3) local_unnamed_addr #4 align 2 {
  %5 = getelementptr inbounds nuw i8, ptr %0, i64 704
  %6 = load ptr, ptr %5, align 8, !tbaa !66
  %7 = getelementptr inbounds nuw %"class.std::vector.7", ptr %6, i64 %2
  %8 = load ptr, ptr %7, align 8, !tbaa !126
  %9 = getelementptr inbounds nuw i8, ptr %7, i64 8
  %10 = load ptr, ptr %9, align 8, !tbaa !126
  %.not10 = icmp eq ptr %8, %10
  br i1 %.not10, label %._crit_edge, label %.lr.ph

.lr.ph:                                           ; preds = %4
  %11 = getelementptr inbounds nuw i8, ptr %1, i64 256
  %12 = getelementptr inbounds nuw i8, ptr %1, i64 264
  %13 = load ptr, ptr %12, align 8, !tbaa !67
  %14 = load ptr, ptr %11, align 8, !tbaa !69
  %15 = ptrtoint ptr %13 to i64
  %16 = ptrtoint ptr %14 to i64
  %17 = sub i64 %15, %16
  %18 = ashr exact i64 %17, 3
  br label %19

._crit_edge:                                      ; preds = %_ZNSt6vectorIdSaIdEE2atEm.exit, %4
  ret void

19:                                               ; preds = %.lr.ph, %_ZNSt6vectorIdSaIdEE2atEm.exit
  %.012 = phi ptr [ %3, %.lr.ph ], [ %24, %_ZNSt6vectorIdSaIdEE2atEm.exit ]
  %.sroa.06.011 = phi ptr [ %8, %.lr.ph ], [ %25, %_ZNSt6vectorIdSaIdEE2atEm.exit ]
  %20 = load i64, ptr %.sroa.06.011, align 8, !tbaa !25
  %.not.i.i = icmp ult i64 %20, %18
  br i1 %.not.i.i, label %_ZNSt6vectorIdSaIdEE2atEm.exit, label %21

21:                                               ; preds = %19
  tail call void (ptr, ...) @_ZSt24__throw_out_of_range_fmtPKcz(ptr noundef nonnull @.str.232, i64 noundef %20, i64 noundef %18) #34
  unreachable

_ZNSt6vectorIdSaIdEE2atEm.exit:                   ; preds = %19
  %22 = getelementptr inbounds nuw double, ptr %14, i64 %20
  %23 = load double, ptr %22, align 8, !tbaa !70
  %24 = getelementptr inbounds nuw i8, ptr %.012, i64 8
  store double %23, ptr %.012, align 8, !tbaa !70
  %25 = getelementptr inbounds nuw i8, ptr %.sroa.06.011, i64 8
  %.not = icmp eq ptr %25, %10
  br i1 %.not, label %._crit_edge, label %19
}